(lp0
(dp1
Vdomain
p2
Vwww.instagram.com
p3
sVsecure
p4
I01
sVvalue
p5
VIGSC900bd18af4bfd7b024ed6da669329f4596dd7f09983a26617703223a18d18dad%3A299JrUf4Ya85DwRWMf1xziccEHLvUJ1C%3A%7B%22_auth_user_id%22%3A1420611867%2C%22_auth_user_backend%22%3A%22accounts.backends.CaseInsensitiveModelBackend%22%2C%22_auth_user_hash%22%3A%22%22%2C%22_platform%22%3A4%2C%22_token_ver%22%3A2%2C%22_token%22%3A%221420611867%3AfC1QDkb3Hfp5CyRJMhkhoNvMhMaED99C%3Af991de84a7ab9dd5ccdbc54c79ea8ef6e13715f7b97007db03e33840af096c97%22%2C%22last_refreshed%22%3A1524083292.4852218628%7D
p6
sVexpiry
p7
F1531859292.614584
sVpath
p8
V/
p9
sVhttpOnly
p10
I01
sVname
p11
Vsessionid
p12
sa(dp13
Vdomain
p14
Vwww.instagram.com
p15
sVname
p16
Vurlgen
p17
sVvalue
p18
V"{\u005c"time\u005c": 1524083292}:1f8tgc:FpQYw3IFxSLn5JFO7Lo0I1OGBKI"
p19
sVpath
p20
g9
sVhttpOnly
p21
I00
sVsecure
p22
I00
sa(dp23
Vdomain
p24
Vwww.instagram.com
p25
sVsecure
p26
I00
sVvalue
p27
V10525
p28
sVexpiry
p29
F1524256094.624928
sVpath
p30
g9
sVhttpOnly
p31
I00
sVname
p32
Vshbid
p33
sa(dp34
Vdomain
p35
Vwww.instagram.com
p36
sVname
p37
Vig_or
p38
sVvalue
p39
Vlandscape-primary
p40
sVpath
p41
g9
sVhttpOnly
p42
I00
sVsecure
p43
I00
sa(dp44
Vdomain
p45
Vwww.instagram.com
p46
sVsecure
p47
I00
sVvalue
p48
V1420611867
p49
sVexpiry
p50
F1531859294.624987
sVpath
p51
g9
sVhttpOnly
p52
I00
sVname
p53
Vds_user_id
p54
sa(dp55
Vdomain
p56
Vwww.instagram.com
p57
sVname
p58
Vig_vh
p59
sVvalue
p60
V731
p61
sVpath
p62
g9
sVhttpOnly
p63
I00
sVsecure
p64
I00
sa(dp65
Vdomain
p66
Vwww.instagram.com
p67
sVname
p68
Vig_vw
p69
sVvalue
p70
V1040
p71
sVpath
p72
g9
sVhttpOnly
p73
I00
sVsecure
p74
I00
sa(dp75
Vdomain
p76
Vwww.instagram.com
p77
sVsecure
p78
I00
sVvalue
p79
VWteqVgAEAAHyaY0pGKHWmKyYu7Nj
p80
sVexpiry
p81
F2154803286.988082
sVpath
p82
g9
sVhttpOnly
p83
I00
sVname
p84
Vmid
p85
sa(dp86
Vdomain
p87
Vwww.instagram.com
p88
sVsecure
p89
I01
sVvalue
p90
VzNhvbLagg0k8p4Ple1Iqa76YZdcAArzC
p91
sVexpiry
p92
F1555532894.624973
sVpath
p93
g9
sVhttpOnly
p94
I00
sVname
p95
Vcsrftoken
p96
sa(dp97
Vdomain
p98
Vwww.instagram.com
p99
sVname
p100
Vig_pr
p101
sVvalue
p102
V1
p103
sVpath
p104
g9
sVhttpOnly
p105
I00
sVsecure
p106
I00
sa(dp107
Vdomain
p108
Vwww.instagram.com
p109
sVname
p110
Vrur
p111
sVvalue
p112
VPRN
p113
sVpath
p114
g9
sVhttpOnly
p115
I00
sVsecure
p116
I00
sa.