(lp0
(dp1
Vdomain
p2
V.instagram.com
p3
sVsecure
p4
I00
sVvalue
p5
V10525
p6
sVexpiry
p7
F1524604009.8914
sVpath
p8
V/
p9
sVhttpOnly
p10
I00
sVname
p11
Vshbid
p12
sa(dp13
Vdomain
p14
V.instagram.com
p15
sVname
p16
Vig_vh
p17
sVvalue
p18
V731
p19
sVpath
p20
g9
sVhttpOnly
p21
I00
sVsecure
p22
I00
sa(dp23
Vdomain
p24
V.instagram.com
p25
sVname
p26
Vig_pr
p27
sVvalue
p28
V1
p29
sVpath
p30
g9
sVhttpOnly
p31
I00
sVsecure
p32
I00
sa(dp33
Vdomain
p34
V.instagram.com
p35
sVname
p36
Vurlgen
p37
sVvalue
p38
V"{\u005c"time\u005c": 1524431208}:1fAMC9:-WPTDwg_rKrXNBV8ioTLh-c5hyI"
p39
sVpath
p40
g9
sVhttpOnly
p41
I00
sVsecure
p42
I00
sa(dp43
Vdomain
p44
V.instagram.com
p45
sVname
p46
Vig_vw
p47
sVvalue
p48
V1040
p49
sVpath
p50
g9
sVhttpOnly
p51
I00
sVsecure
p52
I00
sa(dp53
Vdomain
p54
V.instagram.com
p55
sVname
p56
Vmcd
p57
sVvalue
p58
V3
p59
sVpath
p60
g9
sVhttpOnly
p61
I00
sVsecure
p62
I00
sa(dp63
Vdomain
p64
V.instagram.com
p65
sVname
p66
Vmid
p67
sVvalue
p68
VWtz5YgAEAAGSz8rjtMF0YeM4HF5W
p69
sVpath
p70
g9
sVhttpOnly
p71
I00
sVsecure
p72
I00
sa(dp73
Vdomain
p74
V.instagram.com
p75
sVname
p76
Vig_or
p77
sVvalue
p78
Vlandscape-primary
p79
sVpath
p80
g9
sVhttpOnly
p81
I00
sVsecure
p82
I00
sa(dp83
Vdomain
p84
V.instagram.com
p85
sVsecure
p86
I01
sVvalue
p87
VIGSC62b576c88f07473662ead5fd07bfce35fb6e479491e2a1c9bbcfe77b13c8603c%3AYx21OSItiUR7J8GktKDVNhZWcOqvKrOQ%3A%7B%22_auth_user_id%22%3A1420611867%2C%22_auth_user_backend%22%3A%22accounts.backends.CaseInsensitiveModelBackend%22%2C%22_auth_user_hash%22%3A%22%22%2C%22_platform%22%3A4%2C%22_token_ver%22%3A2%2C%22_token%22%3A%221420611867%3AmaiJ5iVaGrPUsBmgohiNCYMXqRG3j6Q8%3A216b1f2481a8fd085db1a057dc2f887e16b1dcbb96bcd0372ab554947e03bda4%22%2C%22last_refreshed%22%3A1524431207.6894564629%7D
p88
sVexpiry
p89
F1532207207.817956
sVpath
p90
g9
sVhttpOnly
p91
I01
sVname
p92
Vsessionid
p93
sa(dp94
Vdomain
p95
V.instagram.com
p96
sVsecure
p97
I00
sVvalue
p98
V1420611867
p99
sVexpiry
p100
F1532207209.891491
sVpath
p101
g9
sVhttpOnly
p102
I00
sVname
p103
Vds_user_id
p104
sa(dp105
Vdomain
p106
V.instagram.com
p107
sVname
p108
Vrur
p109
sVvalue
p110
VPRN
p111
sVpath
p112
g9
sVhttpOnly
p113
I00
sVsecure
p114
I00
sa(dp115
Vdomain
p116
V.instagram.com
p117
sVsecure
p118
I01
sVvalue
p119
VXcVBxlNz3q5wpisPP0YzQeddvEjjOHUE
p120
sVexpiry
p121
F1555880809.891469
sVpath
p122
g9
sVhttpOnly
p123
I00
sVname
p124
Vcsrftoken
p125
sa.