(lp0
(dp1
Vdomain
p2
V.instagram.com
p3
sVname
p4
Vurlgen
p5
sVvalue
p6
V"{\u005c"time\u005c": 1525673933}:1fFZU5:OPQDJ6HExGpGEbSE_WxPkZVdbMY"
p7
sVpath
p8
V/
p9
sVhttpOnly
p10
I00
sVsecure
p11
I00
sa(dp12
Vdomain
p13
V.instagram.com
p14
sVname
p15
Vmid
p16
sVvalue
p17
VWq-2iAAEAAGpqeTFD5kqQLYky3il
p18
sVpath
p19
g9
sVhttpOnly
p20
I00
sVsecure
p21
I00
sa(dp22
Vdomain
p23
V.instagram.com
p24
sVsecure
p25
I01
sVvalue
p26
VIGSC977b2f520094db172682121afb4544bc2d976fdd2ea372c7862678dbfff692a5%3A49jJZhLm6iqWwXLoKC0NYHUiGqcwRoaY%3A%7B%22_auth_user_id%22%3A5996024661%2C%22_auth_user_backend%22%3A%22accounts.backends.CaseInsensitiveModelBackend%22%2C%22_auth_user_hash%22%3A%22%22%2C%22_platform%22%3A4%2C%22_token_ver%22%3A2%2C%22_token%22%3A%225996024661%3AKnoMIKV47TDQP0t4XH7YKZ7StbBFvEzu%3A9ecd4277ead1002141f0431fd2bffce9ed9b5008b388c140edb253e54a22f988%22%2C%22last_refreshed%22%3A1525673931.8499836922%7D
p27
sVexpiry
p28
F1533449932.005025
sVpath
p29
g9
sVhttpOnly
p30
I01
sVname
p31
Vsessionid
p32
sa(dp33
Vdomain
p34
V.instagram.com
p35
sVname
p36
Vmcd
p37
sVvalue
p38
V3
p39
sVpath
p40
g9
sVhttpOnly
p41
I00
sVsecure
p42
I00
sa(dp43
Vdomain
p44
V.instagram.com
p45
sVsecure
p46
I00
sVvalue
p47
V5996024661
p48
sVexpiry
p49
F1533449933.888645
sVpath
p50
g9
sVhttpOnly
p51
I00
sVname
p52
Vds_user_id
p53
sa(dp54
Vdomain
p55
V.instagram.com
p56
sVname
p57
Vrur
p58
sVvalue
p59
VFRC
p60
sVpath
p61
g9
sVhttpOnly
p62
I00
sVsecure
p63
I00
sa(dp64
Vdomain
p65
V.instagram.com
p66
sVsecure
p67
I00
sVvalue
p68
V13048
p69
sVexpiry
p70
F1526278733.888378
sVpath
p71
g9
sVhttpOnly
p72
I00
sVname
p73
Vshbid
p74
sa(dp75
Vdomain
p76
V.instagram.com
p77
sVsecure
p78
I00
sVvalue
p79
V1525673933.7320733
p80
sVexpiry
p81
F1526278733.888459
sVpath
p82
g9
sVhttpOnly
p83
I00
sVname
p84
Vshbts
p85
sa(dp86
Vdomain
p87
V.instagram.com
p88
sVsecure
p89
I01
sVvalue
p90
VZ1SECD4G58ihb4feM6paM7adFsXTkwI3
p91
sVexpiry
p92
F1557123533.888252
sVpath
p93
g9
sVhttpOnly
p94
I00
sVname
p95
Vcsrftoken
p96
sa.