(lp0
(dp1
Vdomain
p2
Vwww.instagram.com
p3
sVname
p4
Vurlgen
p5
sVvalue
p6
V"{\u005c"time\u005c": 1523187732}:1f58i6:6uSQB7_LxBZXimrVnjVHrUS9o7Q"
p7
sVpath
p8
V/
p9
sVhttpOnly
p10
I00
sVsecure
p11
I00
sa(dp12
Vdomain
p13
Vwww.instagram.com
p14
sVname
p15
Vrur
p16
sVvalue
p17
VATN
p18
sVpath
p19
g9
sVhttpOnly
p20
I00
sVsecure
p21
I00
sa(dp22
Vdomain
p23
Vwww.instagram.com
p24
sVsecure
p25
I01
sVvalue
p26
VIGSC35157cff1b2ac578b291f4d31998959220024d252fdee4ea45fd467979261c77%3AZMvRP3bK1EmxVIYhotsNxywEeFfoIkYj%3A%7B%22_auth_user_id%22%3A7457260591%2C%22_auth_user_backend%22%3A%22accounts.backends.CaseInsensitiveModelBackend%22%2C%22_auth_user_hash%22%3A%22%22%2C%22_platform%22%3A4%2C%22_token_ver%22%3A2%2C%22_token%22%3A%227457260591%3AlHMl34MWdiN9ujP7z2zcnXpu6tuxUXnG%3A517f88de0036e0a09da58d807a0182b07891b485f74c2a791da411dedb3ea7de%22%2C%22last_refreshed%22%3A1523187731.1694381237%7D
p27
sVexpiry
p28
F1530963731.284753
sVpath
p29
g9
sVhttpOnly
p30
I01
sVname
p31
Vsessionid
p32
sa(dp33
Vdomain
p34
Vwww.instagram.com
p35
sVsecure
p36
I01
sVvalue
p37
VTyvB3FzFrnRXmdTfzjdBiQpESSGfepTn
p38
sVexpiry
p39
F1554637334.955982
sVpath
p40
g9
sVhttpOnly
p41
I00
sVname
p42
Vcsrftoken
p43
sa(dp44
Vdomain
p45
Vwww.instagram.com
p46
sVname
p47
Vig_pr
p48
sVvalue
p49
V1
p50
sVpath
p51
g9
sVhttpOnly
p52
I00
sVsecure
p53
I00
sa(dp54
Vdomain
p55
Vwww.instagram.com
p56
sVname
p57
Vig_or
p58
sVvalue
p59
Vlandscape-primary
p60
sVpath
p61
g9
sVhttpOnly
p62
I00
sVsecure
p63
I00
sa(dp64
Vdomain
p65
Vwww.instagram.com
p66
sVsecure
p67
I00
sVvalue
p68
V7457260591
p69
sVexpiry
p70
F1530963734.956025
sVpath
p71
g9
sVhttpOnly
p72
I00
sVname
p73
Vds_user_id
p74
sa(dp75
Vdomain
p76
Vwww.instagram.com
p77
sVname
p78
Vig_vh
p79
sVvalue
p80
V731
p81
sVpath
p82
g9
sVhttpOnly
p83
I00
sVsecure
p84
I00
sa(dp85
Vdomain
p86
Vwww.instagram.com
p87
sVname
p88
Vig_vw
p89
sVvalue
p90
V1040
p91
sVpath
p92
g9
sVhttpOnly
p93
I00
sVsecure
p94
I00
sa(dp95
Vdomain
p96
Vwww.instagram.com
p97
sVsecure
p98
I00
sVvalue
p99
VWsoADQAEAAFovwk14zoxIXYXAjxc
p100
sVexpiry
p101
F2153907725.407084
sVpath
p102
g9
sVhttpOnly
p103
I00
sVname
p104
Vmid
p105
sa.